target datalayout = "e-m:e-p270:32:32-p271:32:32-p272:64:64-i64:64-i128:128-f80:128-n8:16:32:64-S128"
target triple = "x86_64-pc-linux-gnu"

%struct.SDL_GUID = type { [16 x i8] }
%struct.SDL_VirtualJoystickDesc = type { i32, i16, i16, i16, i16, i16, i16, i16, i16, i16, i16, [2 x i16], i32, i32, ptr, ptr, ptr, ptr, ptr, ptr, ptr, ptr, ptr, ptr, ptr, ptr }
%struct.joystick_hwdata = type { i32, i8, ptr, i32, %struct.SDL_GUID, %struct.SDL_VirtualJoystickDesc, i32, ptr, ptr, ptr, ptr, ptr, ptr, i8, i32, i32, ptr, ptr, ptr }
%struct.SDL_Joystick = type { i32, ptr, ptr, ptr, %struct.SDL_GUID, i16, i64, i8, i8, i32, ptr, i32, ptr, i32, ptr, i32, ptr, i32, ptr, i32, i32, ptr, i16, i16, i64, i64, i16, i16, i64, i64, i8, i8, i8, i64, i8, i32, i32, i32, i8, i32, ptr, i32, ptr, [3 x [3 x float]], i64, ptr, ptr, i32, i32, ptr }

; Function Attrs: nounwind uwtable
define internal void @VIRTUAL_JoystickClose(ptr noundef %0) #0 {
  %2 = alloca ptr, align 8
  %3 = alloca ptr, align 8
  store ptr %0, ptr %2, align 8
  call void @SDL_AssertJoysticksLocked()
  %4 = load ptr, ptr %2, align 8
  %5 = getelementptr inbounds nuw %struct.SDL_Joystick, ptr %4, i32 0, i32 46
  %6 = load ptr, ptr %5, align 8
  %7 = icmp ne ptr %6, null
  br i1 %7, label %8, label %16

8:                                                ; preds = %1
  call void @llvm.lifetime.start.p0(i64 8, ptr %3) #7
  %9 = load ptr, ptr %2, align 8
  %10 = getelementptr inbounds nuw %struct.SDL_Joystick, ptr %9, i32 0, i32 46
  %11 = load ptr, ptr %10, align 8
  store ptr %11, ptr %3, align 8
  %12 = load ptr, ptr %3, align 8
  %13 = getelementptr inbounds nuw %struct.joystick_hwdata, ptr %12, i32 0, i32 17
  store ptr null, ptr %13, align 8
  %14 = load ptr, ptr %2, align 8
  %15 = getelementptr inbounds nuw %struct.SDL_Joystick, ptr %14, i32 0, i32 46
  store ptr null, ptr %15, align 8
  call void @llvm.lifetime.end.p0(i64 8, ptr %3) #7
  br label %16

16:                                               ; preds = %8, %1
  ret void
}