; Function Attrs: nounwind uwtable
define internal void @VIRTUAL_JoystickClose(ptr noundef captures(none) %0) #0 {
  tail call void @SDL_AssertJoysticksLocked() #8
  %2 = getelementptr inbounds nuw i8, ptr %0, i64 328
  %3 = load ptr, ptr %2, align 8
  %.not = icmp eq ptr %3, null
  br i1 %.not, label %6, label %4

4:                                                ; preds = %1
  %5 = getelementptr inbounds nuw i8, ptr %3, i64 256
  store ptr null, ptr %5, align 8
  store ptr null, ptr %2, align 8
  br label %6

6:                                                ; preds = %4, %1
  ret void
}